target datalayout = "e-m:e-p270:32:32-p271:32:32-p272:64:64-i64:64-i128:128-f80:128-n8:16:32:64-S128"
target triple = "x86_64-pc-linux-gnu"

%class.QColor = type <{ i32, %"union.QColor::CT", [2 x i8] }>
%"union.QColor::CT" = type { %struct.anon }
%struct.anon = type { i16, i16, i16, i16, i16 }

; Function Attrs: mustprogress nounwind uwtable
define linkonce_odr void @_ZN6QColor2CTC2Ettttt(ptr noundef nonnull align 2 dereferenceable(10) %0, i16 noundef zeroext %1, i16 noundef zeroext %2, i16 noundef zeroext %3, i16 noundef zeroext %4, i16 noundef zeroext %5) unnamed_addr #2 comdat align 2 {
  %7 = alloca ptr, align 8
  %8 = alloca i16, align 2
  %9 = alloca i16, align 2
  %10 = alloca i16, align 2
  %11 = alloca i16, align 2
  %12 = alloca i16, align 2
  store ptr %0, ptr %7, align 8
  store i16 %1, ptr %8, align 2
  store i16 %2, ptr %9, align 2
  store i16 %3, ptr %10, align 2
  store i16 %4, ptr %11, align 2
  store i16 %5, ptr %12, align 2
  %13 = load ptr, ptr %7, align 8
  %14 = getelementptr inbounds [5 x i16], ptr %13, i64 0, i64 0
  %15 = load i16, ptr %8, align 2
  store i16 %15, ptr %14, align 2
  %16 = getelementptr inbounds i16, ptr %14, i64 1
  %17 = load i16, ptr %9, align 2
  store i16 %17, ptr %16, align 2
  %18 = getelementptr inbounds i16, ptr %16, i64 1
  %19 = load i16, ptr %10, align 2
  store i16 %19, ptr %18, align 2
  %20 = getelementptr inbounds i16, ptr %18, i64 1
  %21 = load i16, ptr %11, align 2
  store i16 %21, ptr %20, align 2
  %22 = getelementptr inbounds i16, ptr %20, i64 1
  %23 = load i16, ptr %12, align 2
  store i16 %23, ptr %22, align 2
  ret void
}

; Function Attrs: mustprogress nounwind willreturn memory(none) uwtable
define linkonce_odr noundef zeroext i1 @_ZN6QColor11isRgbaValidEiiii(i32 noundef %0, i32 noundef %1, i32 noundef %2, i32 noundef %3) #8 comdat align 2 {
  %5 = alloca i32, align 4
  %6 = alloca i32, align 4
  %7 = alloca i32, align 4
  %8 = alloca i32, align 4
  store i32 %0, ptr %5, align 4
  store i32 %1, ptr %6, align 4
  store i32 %2, ptr %7, align 4
  store i32 %3, ptr %8, align 4
  %9 = load i32, ptr %5, align 4
  %10 = icmp ule i32 %9, 255
  br i1 %10, label %11, label %20

11:                                               ; preds = %4
  %12 = load i32, ptr %6, align 4
  %13 = icmp ule i32 %12, 255
  br i1 %13, label %14, label %20

14:                                               ; preds = %11
  %15 = load i32, ptr %7, align 4
  %16 = icmp ule i32 %15, 255
  br i1 %16, label %17, label %20

17:                                               ; preds = %14
  %18 = load i32, ptr %8, align 4
  %19 = icmp ule i32 %18, 255
  br label %20

20:                                               ; preds = %17, %14, %11, %4
  %21 = phi i1 [ false, %14 ], [ false, %11 ], [ false, %4 ], [ %19, %17 ]
  ret i1 %21
}

; Function Attrs: mustprogress nounwind uwtable
define linkonce_odr noundef nonnull align 8 dereferenceable(8) ptr @_Z4qMaxIdERKT_S2_S2_(ptr noundef nonnull align 8 dereferenceable(8) %0, ptr noundef nonnull align 8 dereferenceable(8) %1) #2 comdat {
  %3 = alloca ptr, align 8
  %4 = alloca ptr, align 8
  store ptr %0, ptr %3, align 8
  store ptr %1, ptr %4, align 8
  %5 = load ptr, ptr %3, align 8
  %6 = load double, ptr %5, align 8
  %7 = load ptr, ptr %4, align 8
  %8 = load double, ptr %7, align 8
  %9 = fcmp olt double %6, %8
  br i1 %9, label %10, label %12

10:                                               ; preds = %2
  %11 = load ptr, ptr %4, align 8
  br label %14

12:                                               ; preds = %2
  %13 = load ptr, ptr %3, align 8
  br label %14

14:                                               ; preds = %12, %10
  %15 = phi ptr [ %11, %10 ], [ %13, %12 ]
  ret ptr %15
}

; Function Attrs: mustprogress nounwind uwtable
define linkonce_odr noundef nonnull align 8 dereferenceable(8) ptr @_Z4qMinIdERKT_S2_S2_(ptr noundef nonnull align 8 dereferenceable(8) %0, ptr noundef nonnull align 8 dereferenceable(8) %1) #2 comdat {
  %3 = alloca ptr, align 8
  %4 = alloca ptr, align 8
  store ptr %0, ptr %3, align 8
  store ptr %1, ptr %4, align 8
  %5 = load ptr, ptr %3, align 8
  %6 = load double, ptr %5, align 8
  %7 = load ptr, ptr %4, align 8
  %8 = load double, ptr %7, align 8
  %9 = fcmp olt double %6, %8
  br i1 %9, label %10, label %12

10:                                               ; preds = %2
  %11 = load ptr, ptr %3, align 8
  br label %14

12:                                               ; preds = %2
  %13 = load ptr, ptr %4, align 8
  br label %14

14:                                               ; preds = %12, %10
  %15 = phi ptr [ %11, %10 ], [ %13, %12 ]
  ret ptr %15
}

; Function Attrs: mustprogress nounwind uwtable
define linkonce_odr void @_ZN6QColorC2Eiiii(ptr noundef nonnull align 4 dereferenceable(14) %0, i32 noundef %1, i32 noundef %2, i32 noundef %3, i32 noundef %4) unnamed_addr #2 comdat align 2 {
  %6 = alloca ptr, align 8
  %7 = alloca i32, align 4
  %8 = alloca i32, align 4
  %9 = alloca i32, align 4
  %10 = alloca i32, align 4
  store ptr %0, ptr %6, align 8
  store i32 %1, ptr %7, align 4
  store i32 %2, ptr %8, align 4
  store i32 %3, ptr %9, align 4
  store i32 %4, ptr %10, align 4
  %11 = load ptr, ptr %6, align 8
  %12 = getelementptr inbounds %class.QColor, ptr %11, i32 0, i32 0
  %13 = load i32, ptr %7, align 4
  %14 = load i32, ptr %8, align 4
  %15 = load i32, ptr %9, align 4
  %16 = load i32, ptr %10, align 4
  %17 = call noundef zeroext i1 @_ZN6QColor11isRgbaValidEiiii(i32 noundef %13, i32 noundef %14, i32 noundef %15, i32 noundef %16) #13
  %18 = select i1 %17, i32 1, i32 0
  store i32 %18, ptr %12, align 4
  %19 = getelementptr inbounds %class.QColor, ptr %11, i32 0, i32 1
  %20 = getelementptr inbounds %class.QColor, ptr %11, i32 0, i32 0
  %21 = load i32, ptr %20, align 4
  %22 = icmp eq i32 %21, 1
  br i1 %22, label %23, label %26

23:                                               ; preds = %5
  %24 = load i32, ptr %10, align 4
  %25 = mul i32 %24, 257
  br label %27

26:                                               ; preds = %5
  br label %27

27:                                               ; preds = %26, %23
  %28 = phi i32 [ %25, %23 ], [ 0, %26 ]
  %29 = trunc i32 %28 to i16
  %30 = getelementptr inbounds %class.QColor, ptr %11, i32 0, i32 0
  %31 = load i32, ptr %30, align 4
  %32 = icmp eq i32 %31, 1
  br i1 %32, label %33, label %36

33:                                               ; preds = %27
  %34 = load i32, ptr %7, align 4
  %35 = mul i32 %34, 257
  br label %37

36:                                               ; preds = %27
  br label %37

37:                                               ; preds = %36, %33
  %38 = phi i32 [ %35, %33 ], [ 0, %36 ]
  %39 = trunc i32 %38 to i16
  %40 = getelementptr inbounds %class.QColor, ptr %11, i32 0, i32 0
  %41 = load i32, ptr %40, align 4
  %42 = icmp eq i32 %41, 1
  br i1 %42, label %43, label %46

43:                                               ; preds = %37
  %44 = load i32, ptr %8, align 4
  %45 = mul i32 %44, 257
  br label %47

46:                                               ; preds = %37
  br label %47

47:                                               ; preds = %46, %43
  %48 = phi i32 [ %45, %43 ], [ 0, %46 ]
  %49 = trunc i32 %48 to i16
  %50 = getelementptr inbounds %class.QColor, ptr %11, i32 0, i32 0
  %51 = load i32, ptr %50, align 4
  %52 = icmp eq i32 %51, 1
  br i1 %52, label %53, label %56

53:                                               ; preds = %47
  %54 = load i32, ptr %9, align 4
  %55 = mul i32 %54, 257
  br label %57

56:                                               ; preds = %47
  br label %57

57:                                               ; preds = %56, %53
  %58 = phi i32 [ %55, %53 ], [ 0, %56 ]
  %59 = trunc i32 %58 to i16
  call void @_ZN6QColor2CTC2Ettttt(ptr noundef nonnull align 2 dereferenceable(10) %19, i16 noundef zeroext %29, i16 noundef zeroext %39, i16 noundef zeroext %49, i16 noundef zeroext %59, i16 noundef zeroext 0) #6
  ret void
}

; Function Attrs: mustprogress uwtable
define linkonce_odr noundef nonnull align 8 dereferenceable(8) ptr @_Z6qBoundIdERKT_S2_S2_S2_(ptr noundef nonnull align 8 dereferenceable(8) %0, ptr noundef nonnull align 8 dereferenceable(8) %1, ptr noundef nonnull align 8 dereferenceable(8) %2) #0 comdat {
  %4 = alloca ptr, align 8
  %5 = alloca ptr, align 8
  %6 = alloca ptr, align 8
  store ptr %0, ptr %4, align 8
  store ptr %1, ptr %5, align 8
  store ptr %2, ptr %6, align 8
  %7 = load ptr, ptr %4, align 8
  %8 = load ptr, ptr %6, align 8
  %9 = load ptr, ptr %5, align 8
  %10 = call noundef nonnull align 8 dereferenceable(8) ptr @_Z4qMinIdERKT_S2_S2_(ptr noundef nonnull align 8 dereferenceable(8) %8, ptr noundef nonnull align 8 dereferenceable(8) %9)
  %11 = call noundef nonnull align 8 dereferenceable(8) ptr @_Z4qMaxIdERKT_S2_S2_(ptr noundef nonnull align 8 dereferenceable(8) %7, ptr noundef nonnull align 8 dereferenceable(8) %10)
  ret ptr %11
}

; Function Attrs: mustprogress uwtable
define noundef i32 @_ZN10ColorUtils10alphaBlendERK6QColorS2_d(ptr noundef nonnull align 4 dereferenceable(14) %0, ptr noundef nonnull align 4 dereferenceable(14) %1, double noundef %2) #0 align 2 {
  %4 = alloca ptr, align 8
  %5 = alloca ptr, align 8
  %6 = alloca double, align 8
  %7 = alloca double, align 8
  %8 = alloca double, align 8
  %9 = alloca i32, align 4
  %10 = alloca i32, align 4
  %11 = alloca i32, align 4
  %12 = alloca i32, align 4
  %13 = alloca i32, align 4
  %14 = alloca i32, align 4
  %15 = alloca %class.QColor, align 4
  store ptr %0, ptr %4, align 8
  store ptr %1, ptr %5, align 8
  store double %2, ptr %6, align 8
  store double 0.000000e+00, ptr %7, align 8
  store double 1.000000e+00, ptr %8, align 8
  %16 = call noundef nonnull align 8 dereferenceable(8) ptr @_Z6qBoundIdERKT_S2_S2_S2_(ptr noundef nonnull align 8 dereferenceable(8) %7, ptr noundef nonnull align 8 dereferenceable(8) %6, ptr noundef nonnull align 8 dereferenceable(8) %8)
  %17 = load double, ptr %16, align 8
  store double %17, ptr %6, align 8
  %18 = load ptr, ptr %4, align 8
  %19 = call noundef i32 @_ZNK6QColor3redEv(ptr noundef nonnull align 4 dereferenceable(14) %18) #6
  %20 = sitofp i32 %19 to double
  %21 = load double, ptr %6, align 8
  %22 = fmul double %20, %21
  %23 = fptosi double %22 to i32
  store i32 %23, ptr %9, align 4
  %24 = load ptr, ptr %4, align 8
  %25 = call noundef i32 @_ZNK6QColor5greenEv(ptr noundef nonnull align 4 dereferenceable(14) %24) #6
  %26 = sitofp i32 %25 to double
  %27 = load double, ptr %6, align 8
  %28 = fmul double %26, %27
  %29 = fptosi double %28 to i32
  store i32 %29, ptr %10, align 4
  %30 = load ptr, ptr %4, align 8
  %31 = call noundef i32 @_ZNK6QColor4blueEv(ptr noundef nonnull align 4 dereferenceable(14) %30) #6
  %32 = sitofp i32 %31 to double
  %33 = load double, ptr %6, align 8
  %34 = fmul double %32, %33
  %35 = fptosi double %34 to i32
  store i32 %35, ptr %11, align 4
  %36 = load ptr, ptr %5, align 8
  %37 = call noundef i32 @_ZNK6QColor3redEv(ptr noundef nonnull align 4 dereferenceable(14) %36) #6
  %38 = sitofp i32 %37 to double
  %39 = load double, ptr %6, align 8
  %40 = fsub double 1.000000e+00, %39
  %41 = fmul double %38, %40
  %42 = fptosi double %41 to i32
  store i32 %42, ptr %12, align 4
  %43 = load ptr, ptr %5, align 8
  %44 = call noundef i32 @_ZNK6QColor5greenEv(ptr noundef nonnull align 4 dereferenceable(14) %43) #6
  %45 = sitofp i32 %44 to double
  %46 = load double, ptr %6, align 8
  %47 = fsub double 1.000000e+00, %46
  %48 = fmul double %45, %47
  %49 = fptosi double %48 to i32
  store i32 %49, ptr %13, align 4
  %50 = load ptr, ptr %5, align 8
  %51 = call noundef i32 @_ZNK6QColor4blueEv(ptr noundef nonnull align 4 dereferenceable(14) %50) #6
  %52 = sitofp i32 %51 to double
  %53 = load double, ptr %6, align 8
  %54 = fsub double 1.000000e+00, %53
  %55 = fmul double %52, %54
  %56 = fptosi double %55 to i32
  store i32 %56, ptr %14, align 4
  %57 = load i32, ptr %9, align 4
  %58 = load i32, ptr %12, align 4
  %59 = add i32 %57, %58
  %60 = load i32, ptr %10, align 4
  %61 = load i32, ptr %13, align 4
  %62 = add i32 %60, %61
  %63 = load i32, ptr %11, align 4
  %64 = load i32, ptr %14, align 4
  %65 = add i32 %63, %64
  call void @_ZN6QColorC2Eiiii(ptr noundef nonnull align 4 dereferenceable(14) %15, i32 noundef %59, i32 noundef %62, i32 noundef %65, i32 noundef 255) #6
  %66 = call noundef i32 @_ZNK6QColor3rgbEv(ptr noundef nonnull align 4 dereferenceable(14) %15) #6
  ret i32 %66
}