; Function Attrs: mustprogress nounwind uwtable
define noundef i32 @_ZN10ColorUtils10alphaBlendERK6QColorS2_d(ptr noundef nonnull align 4 dereferenceable(14) %0, ptr noundef nonnull align 4 dereferenceable(14) %1, double noundef %2) local_unnamed_addr #5 align 2 {
  %4 = alloca %class.QColor, align 4
  %5 = fcmp ogt double %2, 1.000000e+00
  %6 = select i1 %5, double 1.000000e+00, double %2
  %7 = fcmp ogt double %6, 0.000000e+00
  %.sroa.speculated = select i1 %7, double %6, double 0.000000e+00
  %8 = tail call noundef i32 @_ZNK6QColor3redEv(ptr noundef nonnull align 4 dereferenceable(14) %0) #15
  %9 = tail call noundef i32 @_ZNK6QColor5greenEv(ptr noundef nonnull align 4 dereferenceable(14) %0) #15
  %10 = tail call noundef i32 @_ZNK6QColor4blueEv(ptr noundef nonnull align 4 dereferenceable(14) %0) #15
  %11 = tail call noundef i32 @_ZNK6QColor3redEv(ptr noundef nonnull align 4 dereferenceable(14) %1) #15
  %12 = fsub double 1.000000e+00, %.sroa.speculated
  %13 = tail call noundef i32 @_ZNK6QColor5greenEv(ptr noundef nonnull align 4 dereferenceable(14) %1) #15
  %14 = tail call noundef i32 @_ZNK6QColor4blueEv(ptr noundef nonnull align 4 dereferenceable(14) %1) #15
  %15 = insertelement <2 x i32> poison, i32 %14, i64 0
  %16 = insertelement <2 x i32> %15, i32 %10, i64 1
  %17 = sitofp <2 x i32> %16 to <2 x double>
  %18 = insertelement <2 x double> poison, double %12, i64 0
  %19 = insertelement <2 x double> %18, double %.sroa.speculated, i64 1
  %20 = fmul <2 x double> %19, %17
  %21 = fptosi <2 x double> %20 to <2 x i32>
  %shift = shufflevector <2 x i32> %21, <2 x i32> poison, <2 x i32> <i32 1, i32 poison>
  %22 = add <2 x i32> %shift, %21
  %23 = getelementptr inbounds i8, ptr %4, i64 4
  %24 = bitcast <2 x i32> %22 to <4 x i16>
  %25 = extractelement <4 x i16> %24, i64 0
  %26 = mul i16 %25, 257
  %27 = getelementptr inbounds i8, ptr %4, i64 6
  %28 = insertelement <2 x i32> poison, i32 %8, i64 0
  %29 = insertelement <2 x i32> %28, i32 %9, i64 1
  %30 = sitofp <2 x i32> %29 to <2 x double>
  %31 = insertelement <2 x double> poison, double %.sroa.speculated, i64 0
  %32 = shufflevector <2 x double> %31, <2 x double> poison, <2 x i32> zeroinitializer
  %33 = fmul <2 x double> %32, %30
  %34 = fptosi <2 x double> %33 to <2 x i32>
  %35 = insertelement <2 x i32> poison, i32 %11, i64 0
  %36 = insertelement <2 x i32> %35, i32 %13, i64 1
  %37 = sitofp <2 x i32> %36 to <2 x double>
  %38 = shufflevector <2 x double> %18, <2 x double> poison, <2 x i32> zeroinitializer
  %39 = fmul <2 x double> %38, %37
  %40 = fptosi <2 x double> %39 to <2 x i32>
  %41 = add <2 x i32> %40, %34
  %shift19 = shufflevector <2 x i32> %41, <2 x i32> poison, <2 x i32> <i32 1, i32 poison>
  %42 = or <2 x i32> %shift19, %41
  %43 = or <2 x i32> %42, %22
  %44 = extractelement <2 x i32> %43, i64 0
  %spec.select.i.i = icmp ult i32 %44, 256
  %45 = zext i1 %spec.select.i.i to i32
  store i32 %45, ptr %4, align 4
  %46 = sext i1 %spec.select.i.i to i16
  %47 = trunc <2 x i32> %41 to <2 x i16>
  %48 = mul <2 x i16> %47, <i16 257, i16 257>
  %49 = insertelement <2 x i1> poison, i1 %spec.select.i.i, i64 0
  %50 = shufflevector <2 x i1> %49, <2 x i1> poison, <2 x i32> zeroinitializer
  %51 = select <2 x i1> %50, <2 x i16> %48, <2 x i16> zeroinitializer
  %52 = select i1 %spec.select.i.i, i16 %26, i16 0
  store i16 %46, ptr %23, align 4
  store <2 x i16> %51, ptr %27, align 2
  %53 = getelementptr inbounds i8, ptr %4, i64 10
  store i16 %52, ptr %53, align 2
  %54 = getelementptr inbounds i8, ptr %4, i64 12
  store i16 0, ptr %54, align 4
  %55 = call noundef i32 @_ZNK6QColor3rgbEv(ptr noundef nonnull align 4 dereferenceable(14) %4) #15
  ret i32 %55
}